target datalayout = "e-m:e-p270:32:32-p271:32:32-p272:64:64-i64:64-i128:128-f80:128-n8:16:32:64-S128"
target triple = "x86_64-pc-linux-gnu"

%"class.ZXing::QRCode::Version" = type { i32, %"class.std::vector.3", %"struct.std::array", i32, i32 }
%"class.std::vector.3" = type { %"struct.std::_Vector_base.4" }
%"struct.std::_Vector_base.4" = type { %"struct.std::_Vector_base<int, std::allocator<int>>::_Vector_impl" }
%"struct.std::_Vector_base<int, std::allocator<int>>::_Vector_impl" = type { %"struct.std::_Vector_base<int, std::allocator<int>>::_Vector_impl_data" }
%"struct.std::_Vector_base<int, std::allocator<int>>::_Vector_impl_data" = type { ptr, ptr, ptr }
%"struct.std::array" = type { [4 x %"struct.ZXing::QRCode::ECBlocks"] }
%"struct.ZXing::QRCode::ECBlocks" = type { i32, %"struct.std::array.8" }
%"struct.std::array.8" = type { [2 x %"struct.ZXing::QRCode::ECB"] }
%"struct.ZXing::QRCode::ECB" = type { i32, i32 }

@_ZTISt16invalid_argument = external constant ptr
@.str.10 = private unnamed_addr constant [13 x i8] c"Data too big\00", align 1

; Function Attrs: mustprogress nounwind optsize uwtable
define linkonce_odr noundef nonnull align 4 dereferenceable(8) ptr @_ZNSt14__array_traitsIN5ZXing6QRCode3ECBELm2EE6_S_refERA2_KS2_m(ptr noundef nonnull align 4 dereferenceable(16) %0, i64 noundef %1) #2 comdat align 2 {
  %3 = alloca ptr, align 8
  %4 = alloca i64, align 8
  store ptr %0, ptr %3, align 8, !tbaa !243
  store i64 %1, ptr %4, align 8, !tbaa !39
  %5 = load ptr, ptr %3, align 8, !tbaa !243
  %6 = load i64, ptr %4, align 8, !tbaa !39
  %7 = getelementptr inbounds nuw [2 x %"struct.ZXing::QRCode::ECB"], ptr %5, i64 0, i64 %6
  ret ptr %7
}

; Function Attrs: mustprogress nounwind optsize uwtable
define linkonce_odr noundef nonnull align 4 dereferenceable(8) ptr @_ZNKSt5arrayIN5ZXing6QRCode3ECBELm2EEixEm(ptr noundef nonnull align 4 dereferenceable(16) %0, i64 noundef %1) #2 comdat align 2 {
  %3 = alloca ptr, align 8
  %4 = alloca i64, align 8
  store ptr %0, ptr %3, align 8, !tbaa !241
  store i64 %1, ptr %4, align 8, !tbaa !39
  %5 = load ptr, ptr %3, align 8
  %6 = getelementptr inbounds nuw %"struct.std::array.8", ptr %5, i32 0, i32 0
  %7 = load i64, ptr %4, align 8, !tbaa !39
  %8 = call noundef nonnull align 4 dereferenceable(8) ptr @_ZNSt14__array_traitsIN5ZXing6QRCode3ECBELm2EE6_S_refERA2_KS2_m(ptr noundef nonnull align 4 dereferenceable(16) %6, i64 noundef %7) #20
  ret ptr %8
}

; Function Attrs: mustprogress nounwind optsize uwtable
define linkonce_odr noundef nonnull align 4 dereferenceable(20) ptr @_ZNSt14__array_traitsIN5ZXing6QRCode8ECBlocksELm4EE6_S_refERA4_KS2_m(ptr noundef nonnull align 4 dereferenceable(80) %0, i64 noundef %1) #2 comdat align 2 {
  %3 = alloca ptr, align 8
  %4 = alloca i64, align 8
  store ptr %0, ptr %3, align 8, !tbaa !22
  store i64 %1, ptr %4, align 8, !tbaa !39
  %5 = load ptr, ptr %3, align 8, !tbaa !22
  %6 = load i64, ptr %4, align 8, !tbaa !39
  %7 = getelementptr inbounds nuw [4 x %"struct.ZXing::QRCode::ECBlocks"], ptr %5, i64 0, i64 %6
  ret ptr %7
}

; Function Attrs: mustprogress nounwind optsize uwtable
define linkonce_odr noundef i32 @_ZNK5ZXing6QRCode8ECBlocks9numBlocksEv(ptr noundef nonnull align 4 dereferenceable(20) %0) #2 comdat align 2 {
  %2 = alloca ptr, align 8
  store ptr %0, ptr %2, align 8, !tbaa !22
  %3 = load ptr, ptr %2, align 8
  %4 = getelementptr inbounds nuw %"struct.ZXing::QRCode::ECBlocks", ptr %3, i32 0, i32 1
  %5 = call noundef nonnull align 4 dereferenceable(8) ptr @_ZNKSt5arrayIN5ZXing6QRCode3ECBELm2EEixEm(ptr noundef nonnull align 4 dereferenceable(16) %4, i64 noundef 0) #20
  %6 = getelementptr inbounds nuw %"struct.ZXing::QRCode::ECB", ptr %5, i32 0, i32 0
  %7 = load i32, ptr %6, align 4, !tbaa !65
  %8 = getelementptr inbounds nuw %"struct.ZXing::QRCode::ECBlocks", ptr %3, i32 0, i32 1
  %9 = call noundef nonnull align 4 dereferenceable(8) ptr @_ZNKSt5arrayIN5ZXing6QRCode3ECBELm2EEixEm(ptr noundef nonnull align 4 dereferenceable(16) %8, i64 noundef 1) #20
  %10 = getelementptr inbounds nuw %"struct.ZXing::QRCode::ECB", ptr %9, i32 0, i32 0
  %11 = load i32, ptr %10, align 4, !tbaa !65
  %12 = add nsw i32 %7, %11
  ret i32 %12
}

; Function Attrs: mustprogress nounwind optsize uwtable
define linkonce_odr noundef nonnull align 4 dereferenceable(20) ptr @_ZNKSt5arrayIN5ZXing6QRCode8ECBlocksELm4EEixEm(ptr noundef nonnull align 4 dereferenceable(80) %0, i64 noundef %1) #2 comdat align 2 {
  %3 = alloca ptr, align 8
  %4 = alloca i64, align 8
  store ptr %0, ptr %3, align 8, !tbaa !167
  store i64 %1, ptr %4, align 8, !tbaa !39
  %5 = load ptr, ptr %3, align 8
  %6 = getelementptr inbounds nuw %"struct.std::array", ptr %5, i32 0, i32 0
  %7 = load i64, ptr %4, align 8, !tbaa !39
  %8 = call noundef nonnull align 4 dereferenceable(20) ptr @_ZNSt14__array_traitsIN5ZXing6QRCode8ECBlocksELm4EE6_S_refERA4_KS2_m(ptr noundef nonnull align 4 dereferenceable(80) %6, i64 noundef %7) #20
  ret ptr %8
}

; Function Attrs: mustprogress optsize uwtable
define linkonce_odr noundef i32 @_ZNK5ZXing6QRCode8ECBlocks14totalCodewordsEv(ptr noundef nonnull align 4 dereferenceable(20) %0) #0 comdat align 2 {
  %2 = alloca ptr, align 8
  store ptr %0, ptr %2, align 8, !tbaa !22
  %3 = load ptr, ptr %2, align 8
  %4 = getelementptr inbounds nuw %"struct.ZXing::QRCode::ECBlocks", ptr %3, i32 0, i32 0
  %5 = load i32, ptr %4, align 4, !tbaa !50
  %6 = call noundef i32 @_ZNK5ZXing6QRCode8ECBlocks9numBlocksEv(ptr noundef nonnull align 4 dereferenceable(20) %3) #19
  %7 = mul nsw i32 %5, %6
  ret i32 %7
}

; Function Attrs: mustprogress nounwind optsize uwtable
define linkonce_odr noundef nonnull align 4 dereferenceable(20) ptr @_ZNK5ZXing6QRCode7Version16ecBlocksForLevelENS0_20ErrorCorrectionLevelE(ptr noundef nonnull align 8 dereferenceable(120) %0, i32 noundef %1) #2 comdat align 2 {
  %3 = alloca ptr, align 8
  %4 = alloca i32, align 4
  store ptr %0, ptr %3, align 8, !tbaa !20
  store i32 %1, ptr %4, align 4, !tbaa !8
  %5 = load ptr, ptr %3, align 8
  %6 = getelementptr inbounds nuw %"class.ZXing::QRCode::Version", ptr %5, i32 0, i32 2
  %7 = load i32, ptr %4, align 4, !tbaa !8
  %8 = sext i32 %7 to i64
  %9 = call noundef nonnull align 4 dereferenceable(20) ptr @_ZNKSt5arrayIN5ZXing6QRCode8ECBlocksELm4EEixEm(ptr noundef nonnull align 4 dereferenceable(80) %6, i64 noundef %8) #20
  ret ptr %9
}

; Function Attrs: mustprogress nounwind optsize uwtable
define linkonce_odr noundef i32 @_ZNK5ZXing6QRCode7Version14totalCodewordsEv(ptr noundef nonnull align 8 dereferenceable(120) %0) #2 comdat align 2 {
  %2 = alloca ptr, align 8
  store ptr %0, ptr %2, align 8, !tbaa !20
  %3 = load ptr, ptr %2, align 8
  %4 = getelementptr inbounds nuw %"class.ZXing::QRCode::Version", ptr %3, i32 0, i32 3
  %5 = load i32, ptr %4, align 8, !tbaa !41
  ret i32 %5
}

; Function Attrs: mustprogress optsize uwtable
define internal noundef zeroext i1 @_ZN5ZXing6QRCodeL7WillFitEiRKNS0_7VersionENS0_20ErrorCorrectionLevelE(i32 noundef %0, ptr noundef nonnull align 8 dereferenceable(120) %1, i32 noundef %2) #0 {
  %4 = alloca i32, align 4
  %5 = alloca ptr, align 8
  %6 = alloca i32, align 4
  %7 = alloca i32, align 4
  %8 = alloca ptr, align 8
  %9 = alloca i32, align 4
  %10 = alloca i32, align 4
  %11 = alloca i32, align 4
  store i32 %0, ptr %4, align 4, !tbaa !12
  store ptr %1, ptr %5, align 8, !tbaa !20
  store i32 %2, ptr %6, align 4, !tbaa !8
  call void @llvm.lifetime.start.p0(i64 4, ptr %7) #18
  %12 = load ptr, ptr %5, align 8, !tbaa !20
  %13 = call noundef i32 @_ZNK5ZXing6QRCode7Version14totalCodewordsEv(ptr noundef nonnull align 8 dereferenceable(120) %12) #19
  store i32 %13, ptr %7, align 4, !tbaa !12
  call void @llvm.lifetime.start.p0(i64 8, ptr %8) #18
  %14 = load ptr, ptr %5, align 8, !tbaa !20
  %15 = load i32, ptr %6, align 4, !tbaa !8
  %16 = call noundef nonnull align 4 dereferenceable(20) ptr @_ZNK5ZXing6QRCode7Version16ecBlocksForLevelENS0_20ErrorCorrectionLevelE(ptr noundef nonnull align 8 dereferenceable(120) %14, i32 noundef %15) #19
  store ptr %16, ptr %8, align 8, !tbaa !22
  call void @llvm.lifetime.start.p0(i64 4, ptr %9) #18
  %17 = load ptr, ptr %8, align 8, !tbaa !22
  %18 = call noundef i32 @_ZNK5ZXing6QRCode8ECBlocks14totalCodewordsEv(ptr noundef nonnull align 4 dereferenceable(20) %17) #19
  store i32 %18, ptr %9, align 4, !tbaa !12
  call void @llvm.lifetime.start.p0(i64 4, ptr %10) #18
  %19 = load i32, ptr %7, align 4, !tbaa !12
  %20 = load i32, ptr %9, align 4, !tbaa !12
  %21 = sub nsw i32 %19, %20
  store i32 %21, ptr %10, align 4, !tbaa !12
  call void @llvm.lifetime.start.p0(i64 4, ptr %11) #18
  %22 = load i32, ptr %4, align 4, !tbaa !12
  %23 = add nsw i32 %22, 7
  %24 = sdiv i32 %23, 8
  store i32 %24, ptr %11, align 4, !tbaa !12
  %25 = load i32, ptr %10, align 4, !tbaa !12
  %26 = load i32, ptr %11, align 4, !tbaa !12
  %27 = icmp sge i32 %25, %26
  call void @llvm.lifetime.end.p0(i64 4, ptr %11) #18
  call void @llvm.lifetime.end.p0(i64 4, ptr %10) #18
  call void @llvm.lifetime.end.p0(i64 4, ptr %9) #18
  call void @llvm.lifetime.end.p0(i64 8, ptr %8) #18
  call void @llvm.lifetime.end.p0(i64 4, ptr %7) #18
  ret i1 %27
}

; Function Attrs: mustprogress optsize uwtable
define internal noundef nonnull align 8 dereferenceable(120) ptr @_ZN5ZXing6QRCodeL13ChooseVersionEiNS0_20ErrorCorrectionLevelE(i32 noundef %0, i32 noundef %1) #0 personality ptr @__gxx_personality_v0 {
  %3 = alloca ptr, align 8
  %4 = alloca i32, align 4
  %5 = alloca i32, align 4
  %6 = alloca i32, align 4
  %7 = alloca i32, align 4
  %8 = alloca ptr, align 8
  %9 = alloca ptr, align 8
  %10 = alloca i32, align 4
  store i32 %0, ptr %4, align 4, !tbaa !12
  store i32 %1, ptr %5, align 4, !tbaa !8
  call void @llvm.lifetime.start.p0(i64 4, ptr %6) #18
  store i32 1, ptr %6, align 4, !tbaa !12
  br label %11

11:                                               ; preds = %28, %2
  %12 = load i32, ptr %6, align 4, !tbaa !12
  %13 = icmp sle i32 %12, 40
  br i1 %13, label %15, label %14

14:                                               ; preds = %11
  store i32 2, ptr %7, align 4
  br label %31

15:                                               ; preds = %11
  call void @llvm.lifetime.start.p0(i64 8, ptr %8) #18
  %16 = load i32, ptr %6, align 4, !tbaa !12
  %17 = call noundef ptr @_ZN5ZXing6QRCode7Version6Model2Ei(i32 noundef %16) #19
  store ptr %17, ptr %8, align 8, !tbaa !20
  %18 = load i32, ptr %4, align 4, !tbaa !12
  %19 = load ptr, ptr %8, align 8, !tbaa !20
  %20 = load i32, ptr %5, align 4, !tbaa !8
  %21 = call noundef zeroext i1 @_ZN5ZXing6QRCodeL7WillFitEiRKNS0_7VersionENS0_20ErrorCorrectionLevelE(i32 noundef %18, ptr noundef nonnull align 8 dereferenceable(120) %19, i32 noundef %20) #19
  br i1 %21, label %22, label %24

22:                                               ; preds = %15
  %23 = load ptr, ptr %8, align 8, !tbaa !20
  store ptr %23, ptr %3, align 8
  store i32 1, ptr %7, align 4
  br label %25

24:                                               ; preds = %15
  store i32 0, ptr %7, align 4
  br label %25

25:                                               ; preds = %24, %22
  call void @llvm.lifetime.end.p0(i64 8, ptr %8) #18
  %26 = load i32, ptr %7, align 4
  switch i32 %26, label %31 [
    i32 0, label %27
  ]

27:                                               ; preds = %25
  br label %28

28:                                               ; preds = %27
  %29 = load i32, ptr %6, align 4, !tbaa !12
  %30 = add nsw i32 %29, 1
  store i32 %30, ptr %6, align 4, !tbaa !12
  br label %11, !llvm.loop !157

31:                                               ; preds = %25, %14
  call void @llvm.lifetime.end.p0(i64 4, ptr %6) #18
  %32 = load i32, ptr %7, align 4
  switch i32 %32, label %47 [
    i32 2, label %33
    i32 1, label %40
  ]

33:                                               ; preds = %31
  %34 = call ptr @__cxa_allocate_exception(i64 16) #18
  invoke void @_ZNSt16invalid_argumentC1EPKc(ptr noundef nonnull align 8 dereferenceable(16) %34, ptr noundef @.str.10) #19
          to label %35 unwind label %36

35:                                               ; preds = %33
  call void @__cxa_throw(ptr %34, ptr @_ZTISt16invalid_argument, ptr @_ZNSt16invalid_argumentD1Ev) #21
  unreachable

36:                                               ; preds = %33
  %37 = landingpad { ptr, i32 }
          cleanup
  %38 = extractvalue { ptr, i32 } %37, 0
  store ptr %38, ptr %9, align 8
  %39 = extractvalue { ptr, i32 } %37, 1
  store i32 %39, ptr %10, align 4
  call void @__cxa_free_exception(ptr %34) #18
  br label %42

40:                                               ; preds = %31
  %41 = load ptr, ptr %3, align 8
  ret ptr %41

42:                                               ; preds = %36
  %43 = load ptr, ptr %9, align 8
  %44 = load i32, ptr %10, align 4
  %45 = insertvalue { ptr, i32 } poison, ptr %43, 0
  %46 = insertvalue { ptr, i32 } %45, i32 %44, 1
  resume { ptr, i32 } %46

47:                                               ; preds = %31
  unreachable
}