; Function Attrs: mustprogress optsize uwtable
define internal fastcc noundef nonnull align 8 dereferenceable(120) ptr @_ZN5ZXing6QRCodeL13ChooseVersionEiNS0_20ErrorCorrectionLevelE(i32 noundef %0, i32 noundef %1) unnamed_addr #0 personality ptr @__gxx_personality_v0 {
  %3 = sext i32 %1 to i64
  %4 = add nsw i32 %0, 7
  %5 = sdiv i32 %4, 8
  br label %8

6:                                                ; preds = %8
  %7 = add nuw nsw i32 %.01118, 1
  %exitcond.not = icmp eq i32 %7, 41
  br i1 %exitcond.not, label %22, label %8, !llvm.loop !102

8:                                                ; preds = %2, %6
  %.01118 = phi i32 [ 1, %2 ], [ %7, %6 ]
  %9 = tail call noundef ptr @_ZN5ZXing6QRCode7Version6Model2Ei(i32 noundef %.01118) #20
  %10 = getelementptr inbounds nuw i8, ptr %9, i64 112
  %11 = load i32, ptr %10, align 8, !tbaa !31
  %12 = getelementptr inbounds nuw i8, ptr %9, i64 32
  %13 = getelementptr inbounds nuw [4 x %"struct.ZXing::QRCode::ECBlocks"], ptr %12, i64 0, i64 %3
  %14 = load i32, ptr %13, align 4, !tbaa !40
  %15 = getelementptr inbounds nuw i8, ptr %13, i64 4
  %16 = load i32, ptr %15, align 4, !tbaa !43
  %17 = getelementptr inbounds nuw i8, ptr %13, i64 12
  %18 = load i32, ptr %17, align 4, !tbaa !43
  %19 = add nsw i32 %18, %16
  %20 = mul nsw i32 %19, %14
  %21 = sub nsw i32 %11, %20
  %.not = icmp slt i32 %21, %5
  br i1 %.not, label %6, label %27

22:                                               ; preds = %6
  %23 = tail call ptr @__cxa_allocate_exception(i64 16) #19
  invoke void @_ZNSt16invalid_argumentC1EPKc(ptr noundef nonnull align 8 dereferenceable(16) %23, ptr noundef nonnull @.str.10) #20
          to label %24 unwind label %25

24:                                               ; preds = %22
  tail call void @__cxa_throw(ptr nonnull %23, ptr nonnull @_ZTISt16invalid_argument, ptr nonnull @_ZNSt16invalid_argumentD1Ev) #22
  unreachable

25:                                               ; preds = %22
  %26 = landingpad { ptr, i32 }
          cleanup
  tail call void @__cxa_free_exception(ptr nonnull %23) #19
  resume { ptr, i32 } %26

27:                                               ; preds = %8
  ret ptr %9
}